target datalayout = "e-m:e-p270:32:32-p271:32:32-p272:64:64-i64:64-i128:128-f80:128-n8:16:32:64-S128"
target triple = "x86_64-pc-linux-gnu"

; Function Attrs: inlinehint mustprogress nounwind willreturn memory(read) uwtable
define available_externally i32 @tolower(i32 noundef %0) #16 {
  %2 = alloca i32, align 4
  store i32 %0, ptr %2, align 4, !tbaa !25
  %3 = load i32, ptr %2, align 4, !tbaa !25
  %4 = icmp sge i32 %3, -128
  br i1 %4, label %5, label %15

5:                                                ; preds = %1
  %6 = load i32, ptr %2, align 4, !tbaa !25
  %7 = icmp slt i32 %6, 256
  br i1 %7, label %8, label %15

8:                                                ; preds = %5
  %9 = call ptr @__ctype_tolower_loc() #28
  %10 = load ptr, ptr %9, align 8, !tbaa !88
  %11 = load i32, ptr %2, align 4, !tbaa !25
  %12 = sext i32 %11 to i64
  %13 = getelementptr inbounds i32, ptr %10, i64 %12
  %14 = load i32, ptr %13, align 4, !tbaa !25
  br label %17

15:                                               ; preds = %5, %1
  %16 = load i32, ptr %2, align 4, !tbaa !25
  br label %17

17:                                               ; preds = %15, %8
  %18 = phi i32 [ %14, %8 ], [ %16, %15 ]
  ret i32 %18
}

; Function Attrs: mustprogress uwtable
define internal void @_ZNSt3__16chronoL6__skipB8ne210000ERNS_13basic_istreamIcNS_11char_traitsIcEEEEc(ptr noundef nonnull align 8 dereferenceable(16) %0, i8 noundef signext %1) #0 {
  %3 = alloca ptr, align 8
  %4 = alloca i8, align 1
  store ptr %0, ptr %3, align 8, !tbaa !27
  store i8 %1, ptr %4, align 1, !tbaa !56
  %5 = load ptr, ptr %3, align 8, !tbaa !27
  %6 = call noundef i32 @_ZNSt3__113basic_istreamIcNS_11char_traitsIcEEE4peekEv(ptr noundef nonnull align 8 dereferenceable(16) %5)
  %7 = call i32 @tolower(i32 noundef %6) #23
  %8 = load i8, ptr %4, align 1, !tbaa !56
  %9 = sext i8 %8 to i32
  %10 = icmp eq i32 %7, %9
  br i1 %10, label %11, label %14

11:                                               ; preds = %2
  %12 = load ptr, ptr %3, align 8, !tbaa !27
  %13 = call noundef i32 @_ZNSt3__113basic_istreamIcNS_11char_traitsIcEEE3getEv(ptr noundef nonnull align 8 dereferenceable(16) %12)
  br label %14

14:                                               ; preds = %11, %2
  ret void
}