; Function Attrs: mustprogress uwtable
define internal fastcc void @_ZNSt3__16chronoL6__skipB8ne210000ERNS_13basic_istreamIcNS_11char_traitsIcEEEEc(ptr noundef nonnull align 8 dereferenceable(16) %0, i8 noundef signext range(i8 101, 122) %1) unnamed_addr #0 {
  %3 = tail call noundef i32 @_ZNSt3__113basic_istreamIcNS_11char_traitsIcEEE4peekEv(ptr noundef nonnull align 8 dereferenceable(16) %0)
  %4 = add i32 %3, 128
  %or.cond.i = icmp ult i32 %4, 384
  br i1 %or.cond.i, label %5, label %tolower.exit

5:                                                ; preds = %2
  %6 = tail call ptr @__ctype_tolower_loc() #32
  %7 = load ptr, ptr %6, align 8, !tbaa !11
  %8 = sext i32 %3 to i64
  %9 = getelementptr inbounds i32, ptr %7, i64 %8
  %10 = load i32, ptr %9, align 4, !tbaa !14
  br label %tolower.exit

tolower.exit:                                     ; preds = %2, %5
  %11 = phi i32 [ %10, %5 ], [ %3, %2 ]
  %12 = zext nneg i8 %1 to i32
  %13 = icmp eq i32 %11, %12
  br i1 %13, label %14, label %16

14:                                               ; preds = %tolower.exit
  %15 = tail call noundef i32 @_ZNSt3__113basic_istreamIcNS_11char_traitsIcEEE3getEv(ptr noundef nonnull align 8 dereferenceable(16) %0)
  br label %16

16:                                               ; preds = %14, %tolower.exit
  ret void
}